target datalayout = "e-m:e-p270:32:32-p271:32:32-p272:64:64-i64:64-i128:128-f80:128-n8:16:32:64-S128"
target triple = "x86_64-pc-linux-gnu"

@.str.17 = private unnamed_addr constant [25 x i8] c"../openssl/test/bntest.c\00", align 1
@ctx = internal global ptr null, align 8
@.str.63 = private unnamed_addr constant [13 x i8] c"a = BN_new()\00", align 1
@.str.64 = private unnamed_addr constant [13 x i8] c"b = BN_new()\00", align 1
@.str.66 = private unnamed_addr constant [29 x i8] c"BN_bntest_rand(a, 512, 0, 0)\00", align 1
@.str.69 = private unnamed_addr constant [2 x i8] c"0\00", align 1
@rand_neg.neg = internal global i32 0, align 4
@rand_neg.sign = internal global [8 x i32] [i32 0, i32 0, i32 0, i32 1, i32 1, i32 0, i32 1, i32 1], align 16
@.str.108 = private unnamed_addr constant [13 x i8] c"r = BN_new()\00", align 1
@.str.225 = private unnamed_addr constant [13 x i8] c"t = BN_new()\00", align 1
@.str.226 = private unnamed_addr constant [50 x i8] c"BN_generate_prime_ex(b, 512, 0, NULL, NULL, NULL)\00", align 1
@.str.227 = private unnamed_addr constant [14 x i8] c"BN_copy(t, b)\00", align 1
@.str.228 = private unnamed_addr constant [18 x i8] c"BN_sub_word(t, 1)\00", align 1
@.str.229 = private unnamed_addr constant [17 x i8] c"BN_rshift1(t, t)\00", align 1
@.str.230 = private unnamed_addr constant [33 x i8] c"BN_mod_exp_recp(r, a, t, b, ctx)\00", align 1
@.str.231 = private unnamed_addr constant [18 x i8] c"BN_add_word(r, 1)\00", align 1
@.str.232 = private unnamed_addr constant [14 x i8] c"BN_ucmp(r, b)\00", align 1
@.str.233 = private unnamed_addr constant [35 x i8] c"Legendre symbol computation failed\00", align 1
@.str.234 = private unnamed_addr constant [36 x i8] c"kronecker = BN_kronecker(a, b, ctx)\00", align 1
@.str.235 = private unnamed_addr constant [3 x i8] c"-1\00", align 1
@.str.236 = private unnamed_addr constant [9 x i8] c"legendre\00", align 1
@.str.237 = private unnamed_addr constant [10 x i8] c"kronecker\00", align 1

; Function Attrs: nounwind uwtable
define internal i32 @rand_neg() #0 {
  %1 = load i32, ptr @rand_neg.neg, align 4, !tbaa !4
  %2 = add i32 %1, 1
  store i32 %2, ptr @rand_neg.neg, align 4, !tbaa !4
  %3 = urem i32 %1, 8
  %4 = zext i32 %3 to i64
  %5 = getelementptr inbounds nuw [8 x i32], ptr @rand_neg.sign, i64 0, i64 %4
  %6 = load i32, ptr %5, align 4, !tbaa !4
  ret i32 %6
}

; Function Attrs: nounwind uwtable
define internal i32 @test_kronecker() #0 {
  %1 = alloca ptr, align 8
  %2 = alloca ptr, align 8
  %3 = alloca ptr, align 8
  %4 = alloca ptr, align 8
  %5 = alloca i32, align 4
  %6 = alloca i32, align 4
  %7 = alloca i32, align 4
  %8 = alloca i32, align 4
  call void @llvm.lifetime.start.p0(i64 8, ptr %1) #7
  store ptr null, ptr %1, align 8, !tbaa !13
  call void @llvm.lifetime.start.p0(i64 8, ptr %2) #7
  store ptr null, ptr %2, align 8, !tbaa !13
  call void @llvm.lifetime.start.p0(i64 8, ptr %3) #7
  store ptr null, ptr %3, align 8, !tbaa !13
  call void @llvm.lifetime.start.p0(i64 8, ptr %4) #7
  store ptr null, ptr %4, align 8, !tbaa !13
  call void @llvm.lifetime.start.p0(i64 4, ptr %5) #7
  call void @llvm.lifetime.start.p0(i64 4, ptr %6) #7
  call void @llvm.lifetime.start.p0(i64 4, ptr %7) #7
  call void @llvm.lifetime.start.p0(i64 4, ptr %8) #7
  store i32 0, ptr %8, align 4, !tbaa !4
  %9 = call ptr @BN_new()
  store ptr %9, ptr %1, align 8, !tbaa !13
  %10 = call i32 @test_ptr(ptr noundef @.str.17, i32 noundef 1142, ptr noundef @.str.63, ptr noundef %9)
  %11 = icmp ne i32 %10, 0
  br i1 %11, label %12, label %24

12:                                               ; preds = %0
  %13 = call ptr @BN_new()
  store ptr %13, ptr %2, align 8, !tbaa !13
  %14 = call i32 @test_ptr(ptr noundef @.str.17, i32 noundef 1143, ptr noundef @.str.64, ptr noundef %13)
  %15 = icmp ne i32 %14, 0
  br i1 %15, label %16, label %24

16:                                               ; preds = %12
  %17 = call ptr @BN_new()
  store ptr %17, ptr %3, align 8, !tbaa !13
  %18 = call i32 @test_ptr(ptr noundef @.str.17, i32 noundef 1144, ptr noundef @.str.108, ptr noundef %17)
  %19 = icmp ne i32 %18, 0
  br i1 %19, label %20, label %24

20:                                               ; preds = %16
  %21 = call ptr @BN_new()
  store ptr %21, ptr %4, align 8, !tbaa !13
  %22 = call i32 @test_ptr(ptr noundef @.str.17, i32 noundef 1145, ptr noundef @.str.225, ptr noundef %21)
  %23 = icmp ne i32 %22, 0
  br i1 %23, label %25, label %24

24:                                               ; preds = %20, %16, %12, %0
  br label %147

25:                                               ; preds = %20
  %26 = load ptr, ptr %2, align 8, !tbaa !13
  %27 = call i32 @BN_generate_prime_ex(ptr noundef %26, i32 noundef 512, i32 noundef 0, ptr noundef null, ptr noundef null, ptr noundef null)
  %28 = icmp ne i32 %27, 0
  %29 = zext i1 %28 to i32
  %30 = call i32 @test_true(ptr noundef @.str.17, i32 noundef 1158, ptr noundef @.str.226, i32 noundef %29)
  %31 = icmp ne i32 %30, 0
  br i1 %31, label %33, label %32

32:                                               ; preds = %25
  br label %147

33:                                               ; preds = %25
  %34 = load ptr, ptr %2, align 8, !tbaa !13
  %35 = call i32 @rand_neg()
  call void @BN_set_negative(ptr noundef %34, i32 noundef %35)
  store i32 0, ptr %5, align 4, !tbaa !4
  br label %36

36:                                               ; preds = %143, %33
  %37 = load i32, ptr %5, align 4, !tbaa !4
  %38 = icmp slt i32 %37, 100
  br i1 %38, label %39, label %146

39:                                               ; preds = %36
  %40 = load ptr, ptr %1, align 8, !tbaa !13
  %41 = call i32 @BN_bntest_rand(ptr noundef %40, i32 noundef 512, i32 noundef 0, i32 noundef 0)
  %42 = icmp ne i32 %41, 0
  %43 = zext i1 %42 to i32
  %44 = call i32 @test_true(ptr noundef @.str.17, i32 noundef 1163, ptr noundef @.str.66, i32 noundef %43)
  %45 = icmp ne i32 %44, 0
  br i1 %45, label %47, label %46

46:                                               ; preds = %39
  br label %147

47:                                               ; preds = %39
  %48 = load ptr, ptr %1, align 8, !tbaa !13
  %49 = call i32 @rand_neg()
  call void @BN_set_negative(ptr noundef %48, i32 noundef %49)
  %50 = load ptr, ptr %4, align 8, !tbaa !13
  %51 = load ptr, ptr %2, align 8, !tbaa !13
  %52 = call ptr @BN_copy(ptr noundef %50, ptr noundef %51)
  %53 = icmp ne ptr %52, null
  %54 = zext i1 %53 to i32
  %55 = call i32 @test_true(ptr noundef @.str.17, i32 noundef 1168, ptr noundef @.str.227, i32 noundef %54)
  %56 = icmp ne i32 %55, 0
  br i1 %56, label %58, label %57

57:                                               ; preds = %47
  br label %147

58:                                               ; preds = %47
  %59 = load ptr, ptr %4, align 8, !tbaa !13
  call void @BN_set_negative(ptr noundef %59, i32 noundef 0)
  %60 = load ptr, ptr %4, align 8, !tbaa !13
  %61 = call i32 @BN_sub_word(ptr noundef %60, i64 noundef 1)
  %62 = icmp ne i32 %61, 0
  %63 = zext i1 %62 to i32
  %64 = call i32 @test_true(ptr noundef @.str.17, i32 noundef 1171, ptr noundef @.str.228, i32 noundef %63)
  %65 = icmp ne i32 %64, 0
  br i1 %65, label %67, label %66

66:                                               ; preds = %58
  br label %147

67:                                               ; preds = %58
  %68 = load ptr, ptr %4, align 8, !tbaa !13
  %69 = load ptr, ptr %4, align 8, !tbaa !13
  %70 = call i32 @BN_rshift1(ptr noundef %68, ptr noundef %69)
  %71 = icmp ne i32 %70, 0
  %72 = zext i1 %71 to i32
  %73 = call i32 @test_true(ptr noundef @.str.17, i32 noundef 1173, ptr noundef @.str.229, i32 noundef %72)
  %74 = icmp ne i32 %73, 0
  br i1 %74, label %76, label %75

75:                                               ; preds = %67
  br label %147

76:                                               ; preds = %67
  %77 = load ptr, ptr %2, align 8, !tbaa !13
  call void @BN_set_negative(ptr noundef %77, i32 noundef 0)
  %78 = load ptr, ptr %3, align 8, !tbaa !13
  %79 = load ptr, ptr %1, align 8, !tbaa !13
  %80 = load ptr, ptr %4, align 8, !tbaa !13
  %81 = load ptr, ptr %2, align 8, !tbaa !13
  %82 = load ptr, ptr @ctx, align 8, !tbaa !10
  %83 = call i32 @BN_mod_exp_recp(ptr noundef %78, ptr noundef %79, ptr noundef %80, ptr noundef %81, ptr noundef %82)
  %84 = icmp ne i32 %83, 0
  %85 = zext i1 %84 to i32
  %86 = call i32 @test_true(ptr noundef @.str.17, i32 noundef 1178, ptr noundef @.str.230, i32 noundef %85)
  %87 = icmp ne i32 %86, 0
  br i1 %87, label %89, label %88

88:                                               ; preds = %76
  br label %147

89:                                               ; preds = %76
  %90 = load ptr, ptr %2, align 8, !tbaa !13
  call void @BN_set_negative(ptr noundef %90, i32 noundef 1)
  %91 = load ptr, ptr %3, align 8, !tbaa !13
  %92 = call i32 @BN_is_word(ptr noundef %91, i64 noundef 1)
  %93 = icmp ne i32 %92, 0
  br i1 %93, label %94, label %95

94:                                               ; preds = %89
  store i32 1, ptr %6, align 4, !tbaa !4
  br label %117

95:                                               ; preds = %89
  %96 = load ptr, ptr %3, align 8, !tbaa !13
  %97 = call i32 @BN_is_zero(ptr noundef %96)
  %98 = icmp ne i32 %97, 0
  br i1 %98, label %99, label %100

99:                                               ; preds = %95
  store i32 0, ptr %6, align 4, !tbaa !4
  br label %116

100:                                              ; preds = %95
  %101 = load ptr, ptr %3, align 8, !tbaa !13
  %102 = call i32 @BN_add_word(ptr noundef %101, i64 noundef 1)
  %103 = icmp ne i32 %102, 0
  %104 = zext i1 %103 to i32
  %105 = call i32 @test_true(ptr noundef @.str.17, i32 noundef 1187, ptr noundef @.str.231, i32 noundef %104)
  %106 = icmp ne i32 %105, 0
  br i1 %106, label %108, label %107

107:                                              ; preds = %100
  br label %147

108:                                              ; preds = %100
  %109 = load ptr, ptr %3, align 8, !tbaa !13
  %110 = load ptr, ptr %2, align 8, !tbaa !13
  %111 = call i32 @BN_ucmp(ptr noundef %109, ptr noundef %110)
  %112 = call i32 @test_int_eq(ptr noundef @.str.17, i32 noundef 1189, ptr noundef @.str.232, ptr noundef @.str.69, i32 noundef %111, i32 noundef 0)
  %113 = icmp ne i32 %112, 0
  br i1 %113, label %115, label %114

114:                                              ; preds = %108
  call void (ptr, i32, ptr, ...) @test_info(ptr noundef @.str.17, i32 noundef 1190, ptr noundef @.str.233)
  br label %147

115:                                              ; preds = %108
  store i32 -1, ptr %6, align 4, !tbaa !4
  br label %116

116:                                              ; preds = %115, %99
  br label %117

117:                                              ; preds = %116, %94
  %118 = load ptr, ptr %1, align 8, !tbaa !13
  %119 = load ptr, ptr %2, align 8, !tbaa !13
  %120 = load ptr, ptr @ctx, align 8, !tbaa !10
  %121 = call i32 @BN_kronecker(ptr noundef %118, ptr noundef %119, ptr noundef %120)
  store i32 %121, ptr %7, align 4, !tbaa !4
  %122 = call i32 @test_int_ge(ptr noundef @.str.17, i32 noundef 1196, ptr noundef @.str.234, ptr noundef @.str.235, i32 noundef %121, i32 noundef -1)
  %123 = icmp ne i32 %122, 0
  br i1 %123, label %125, label %124

124:                                              ; preds = %117
  br label %147

125:                                              ; preds = %117
  %126 = load ptr, ptr %1, align 8, !tbaa !13
  %127 = call i32 @BN_is_negative(ptr noundef %126)
  %128 = icmp ne i32 %127, 0
  br i1 %128, label %129, label %136

129:                                              ; preds = %125
  %130 = load ptr, ptr %2, align 8, !tbaa !13
  %131 = call i32 @BN_is_negative(ptr noundef %130)
  %132 = icmp ne i32 %131, 0
  br i1 %132, label %133, label %136

133:                                              ; preds = %129
  %134 = load i32, ptr %7, align 4, !tbaa !4
  %135 = sub nsw i32 0, %134
  store i32 %135, ptr %7, align 4, !tbaa !4
  br label %136

136:                                              ; preds = %133, %129, %125
  %137 = load i32, ptr %6, align 4, !tbaa !4
  %138 = load i32, ptr %7, align 4, !tbaa !4
  %139 = call i32 @test_int_eq(ptr noundef @.str.17, i32 noundef 1202, ptr noundef @.str.236, ptr noundef @.str.237, i32 noundef %137, i32 noundef %138)
  %140 = icmp ne i32 %139, 0
  br i1 %140, label %142, label %141

141:                                              ; preds = %136
  br label %147

142:                                              ; preds = %136
  br label %143

143:                                              ; preds = %142
  %144 = load i32, ptr %5, align 4, !tbaa !4
  %145 = add nsw i32 %144, 1
  store i32 %145, ptr %5, align 4, !tbaa !4
  br label %36, !llvm.loop !29

146:                                              ; preds = %36
  store i32 1, ptr %8, align 4, !tbaa !4
  br label %147

147:                                              ; preds = %146, %141, %124, %114, %107, %88, %75, %66, %57, %46, %32, %24
  %148 = load ptr, ptr %1, align 8, !tbaa !13
  call void @BN_free(ptr noundef %148)
  %149 = load ptr, ptr %2, align 8, !tbaa !13
  call void @BN_free(ptr noundef %149)
  %150 = load ptr, ptr %3, align 8, !tbaa !13
  call void @BN_free(ptr noundef %150)
  %151 = load ptr, ptr %4, align 8, !tbaa !13
  call void @BN_free(ptr noundef %151)
  %152 = load i32, ptr %8, align 4, !tbaa !4
  call void @llvm.lifetime.end.p0(i64 4, ptr %8) #7
  call void @llvm.lifetime.end.p0(i64 4, ptr %7) #7
  call void @llvm.lifetime.end.p0(i64 4, ptr %6) #7
  call void @llvm.lifetime.end.p0(i64 4, ptr %5) #7
  call void @llvm.lifetime.end.p0(i64 8, ptr %4) #7
  call void @llvm.lifetime.end.p0(i64 8, ptr %3) #7
  call void @llvm.lifetime.end.p0(i64 8, ptr %2) #7
  call void @llvm.lifetime.end.p0(i64 8, ptr %1) #7
  ret i32 %152
}