; Function Attrs: nounwind uwtable
define internal range(i32 0, 2) i32 @test_kronecker() #1 {
  %1 = tail call ptr @BN_new() #8
  %2 = tail call i32 @test_ptr(ptr noundef nonnull @.str.17, i32 noundef 1142, ptr noundef nonnull @.str.63, ptr noundef %1) #8
  %.not = icmp eq i32 %2, 0
  br i1 %.not, label %.loopexit, label %3

3:                                                ; preds = %0
  %4 = tail call ptr @BN_new() #8
  %5 = tail call i32 @test_ptr(ptr noundef nonnull @.str.17, i32 noundef 1143, ptr noundef nonnull @.str.64, ptr noundef %4) #8
  %.not40 = icmp eq i32 %5, 0
  br i1 %.not40, label %.loopexit, label %6

6:                                                ; preds = %3
  %7 = tail call ptr @BN_new() #8
  %8 = tail call i32 @test_ptr(ptr noundef nonnull @.str.17, i32 noundef 1144, ptr noundef nonnull @.str.108, ptr noundef %7) #8
  %.not41 = icmp eq i32 %8, 0
  br i1 %.not41, label %.loopexit, label %9

9:                                                ; preds = %6
  %10 = tail call ptr @BN_new() #8
  %11 = tail call i32 @test_ptr(ptr noundef nonnull @.str.17, i32 noundef 1145, ptr noundef nonnull @.str.225, ptr noundef %10) #8
  %.not42 = icmp eq i32 %11, 0
  br i1 %.not42, label %.loopexit, label %12

12:                                               ; preds = %9
  %13 = tail call i32 @BN_generate_prime_ex(ptr noundef %4, i32 noundef 512, i32 noundef 0, ptr noundef null, ptr noundef null, ptr noundef null) #8
  %14 = icmp ne i32 %13, 0
  %15 = zext i1 %14 to i32
  %16 = tail call i32 @test_true(ptr noundef nonnull @.str.17, i32 noundef 1158, ptr noundef nonnull @.str.226, i32 noundef %15) #8
  %.not43 = icmp eq i32 %16, 0
  br i1 %.not43, label %.loopexit, label %17

17:                                               ; preds = %12
  %18 = load i32, ptr @rand_neg.neg, align 4, !tbaa !12
  %19 = add i32 %18, 1
  store i32 %19, ptr @rand_neg.neg, align 4, !tbaa !12
  %20 = and i32 %18, 7
  %21 = zext nneg i32 %20 to i64
  %22 = getelementptr inbounds nuw [8 x i32], ptr @rand_neg.sign, i64 0, i64 %21
  %23 = load i32, ptr %22, align 4, !tbaa !12
  tail call void @BN_set_negative(ptr noundef %4, i32 noundef %23) #8
  br label %26

24:                                               ; preds = %80
  %25 = add nuw nsw i32 %.03657, 1
  %exitcond.not = icmp eq i32 %25, 100
  br i1 %exitcond.not, label %.loopexit, label %26, !llvm.loop !24

26:                                               ; preds = %17, %24
  %.03657 = phi i32 [ 0, %17 ], [ %25, %24 ]
  %27 = tail call i32 @BN_bntest_rand(ptr noundef %1, i32 noundef 512, i32 noundef 0, i32 noundef 0) #8
  %28 = icmp ne i32 %27, 0
  %29 = zext i1 %28 to i32
  %30 = tail call i32 @test_true(ptr noundef nonnull @.str.17, i32 noundef 1163, ptr noundef nonnull @.str.66, i32 noundef %29) #8
  %.not44 = icmp eq i32 %30, 0
  br i1 %.not44, label %.loopexit, label %31

31:                                               ; preds = %26
  %32 = load i32, ptr @rand_neg.neg, align 4, !tbaa !12
  %33 = add i32 %32, 1
  store i32 %33, ptr @rand_neg.neg, align 4, !tbaa !12
  %34 = and i32 %32, 7
  %35 = zext nneg i32 %34 to i64
  %36 = getelementptr inbounds nuw [8 x i32], ptr @rand_neg.sign, i64 0, i64 %35
  %37 = load i32, ptr %36, align 4, !tbaa !12
  tail call void @BN_set_negative(ptr noundef %1, i32 noundef %37) #8
  %38 = tail call ptr @BN_copy(ptr noundef %10, ptr noundef %4) #8
  %39 = icmp ne ptr %38, null
  %40 = zext i1 %39 to i32
  %41 = tail call i32 @test_true(ptr noundef nonnull @.str.17, i32 noundef 1168, ptr noundef nonnull @.str.227, i32 noundef %40) #8
  %.not45 = icmp eq i32 %41, 0
  br i1 %.not45, label %.loopexit, label %42

42:                                               ; preds = %31
  tail call void @BN_set_negative(ptr noundef %10, i32 noundef 0) #8
  %43 = tail call i32 @BN_sub_word(ptr noundef %10, i64 noundef 1) #8
  %44 = icmp ne i32 %43, 0
  %45 = zext i1 %44 to i32
  %46 = tail call i32 @test_true(ptr noundef nonnull @.str.17, i32 noundef 1171, ptr noundef nonnull @.str.228, i32 noundef %45) #8
  %.not46 = icmp eq i32 %46, 0
  br i1 %.not46, label %.loopexit, label %47

47:                                               ; preds = %42
  %48 = tail call i32 @BN_rshift1(ptr noundef %10, ptr noundef %10) #8
  %49 = icmp ne i32 %48, 0
  %50 = zext i1 %49 to i32
  %51 = tail call i32 @test_true(ptr noundef nonnull @.str.17, i32 noundef 1173, ptr noundef nonnull @.str.229, i32 noundef %50) #8
  %.not47 = icmp eq i32 %51, 0
  br i1 %.not47, label %.loopexit, label %52

52:                                               ; preds = %47
  tail call void @BN_set_negative(ptr noundef %4, i32 noundef 0) #8
  %53 = load ptr, ptr @ctx, align 8, !tbaa !6
  %54 = tail call i32 @BN_mod_exp_recp(ptr noundef %7, ptr noundef %1, ptr noundef %10, ptr noundef %4, ptr noundef %53) #8
  %55 = icmp ne i32 %54, 0
  %56 = zext i1 %55 to i32
  %57 = tail call i32 @test_true(ptr noundef nonnull @.str.17, i32 noundef 1178, ptr noundef nonnull @.str.230, i32 noundef %56) #8
  %.not48 = icmp eq i32 %57, 0
  br i1 %.not48, label %.loopexit, label %58

58:                                               ; preds = %52
  tail call void @BN_set_negative(ptr noundef %4, i32 noundef 1) #8
  %59 = tail call i32 @BN_is_word(ptr noundef %7, i64 noundef 1) #8
  %.not49 = icmp eq i32 %59, 0
  br i1 %.not49, label %60, label %71

60:                                               ; preds = %58
  %61 = tail call i32 @BN_is_zero(ptr noundef %7) #8
  %.not50 = icmp eq i32 %61, 0
  br i1 %.not50, label %62, label %71

62:                                               ; preds = %60
  %63 = tail call i32 @BN_add_word(ptr noundef %7, i64 noundef 1) #8
  %64 = icmp ne i32 %63, 0
  %65 = zext i1 %64 to i32
  %66 = tail call i32 @test_true(ptr noundef nonnull @.str.17, i32 noundef 1187, ptr noundef nonnull @.str.231, i32 noundef %65) #8
  %.not51 = icmp eq i32 %66, 0
  br i1 %.not51, label %.loopexit, label %67

67:                                               ; preds = %62
  %68 = tail call i32 @BN_ucmp(ptr noundef %7, ptr noundef %4) #8
  %69 = tail call i32 @test_int_eq(ptr noundef nonnull @.str.17, i32 noundef 1189, ptr noundef nonnull @.str.232, ptr noundef nonnull @.str.69, i32 noundef %68, i32 noundef 0) #8
  %.not52 = icmp eq i32 %69, 0
  br i1 %.not52, label %70, label %71

70:                                               ; preds = %67
  tail call void (ptr, i32, ptr, ...) @test_info(ptr noundef nonnull @.str.17, i32 noundef 1190, ptr noundef nonnull @.str.233) #8
  br label %.loopexit

71:                                               ; preds = %67, %60, %58
  %.035 = phi i32 [ 1, %58 ], [ 0, %60 ], [ -1, %67 ]
  %72 = load ptr, ptr @ctx, align 8, !tbaa !6
  %73 = tail call i32 @BN_kronecker(ptr noundef %1, ptr noundef %4, ptr noundef %72) #8
  %74 = tail call i32 @test_int_ge(ptr noundef nonnull @.str.17, i32 noundef 1196, ptr noundef nonnull @.str.234, ptr noundef nonnull @.str.235, i32 noundef %73, i32 noundef -1) #8
  %.not53 = icmp eq i32 %74, 0
  br i1 %.not53, label %.loopexit, label %75

75:                                               ; preds = %71
  %76 = tail call i32 @BN_is_negative(ptr noundef %1) #8
  %.not54 = icmp eq i32 %76, 0
  br i1 %.not54, label %80, label %77

77:                                               ; preds = %75
  %78 = tail call i32 @BN_is_negative(ptr noundef %4) #8
  %.not55 = icmp eq i32 %78, 0
  %79 = sub nsw i32 0, %73
  %spec.select = select i1 %.not55, i32 %73, i32 %79
  br label %80

80:                                               ; preds = %77, %75
  %.034 = phi i32 [ %73, %75 ], [ %spec.select, %77 ]
  %81 = tail call i32 @test_int_eq(ptr noundef nonnull @.str.17, i32 noundef 1202, ptr noundef nonnull @.str.236, ptr noundef nonnull @.str.237, i32 noundef %.035, i32 noundef %.034) #8
  %.not56 = icmp eq i32 %81, 0
  br i1 %.not56, label %.loopexit, label %24

.loopexit:                                        ; preds = %24, %80, %71, %62, %52, %47, %42, %31, %26, %12, %0, %3, %6, %9, %70
  %.039 = phi ptr [ %4, %70 ], [ %4, %12 ], [ %4, %9 ], [ %4, %6 ], [ %4, %3 ], [ null, %0 ], [ %4, %26 ], [ %4, %31 ], [ %4, %42 ], [ %4, %47 ], [ %4, %52 ], [ %4, %62 ], [ %4, %71 ], [ %4, %80 ], [ %4, %24 ]
  %.038 = phi ptr [ %7, %70 ], [ %7, %12 ], [ %7, %9 ], [ %7, %6 ], [ null, %3 ], [ null, %0 ], [ %7, %26 ], [ %7, %31 ], [ %7, %42 ], [ %7, %47 ], [ %7, %52 ], [ %7, %62 ], [ %7, %71 ], [ %7, %80 ], [ %7, %24 ]
  %.037 = phi ptr [ %10, %70 ], [ %10, %12 ], [ %10, %9 ], [ null, %6 ], [ null, %3 ], [ null, %0 ], [ %10, %26 ], [ %10, %31 ], [ %10, %42 ], [ %10, %47 ], [ %10, %52 ], [ %10, %62 ], [ %10, %71 ], [ %10, %80 ], [ %10, %24 ]
  %.0 = phi i32 [ 0, %70 ], [ 0, %12 ], [ 0, %9 ], [ 0, %6 ], [ 0, %3 ], [ 0, %0 ], [ 1, %24 ], [ 0, %80 ], [ 0, %71 ], [ 0, %62 ], [ 0, %52 ], [ 0, %47 ], [ 0, %42 ], [ 0, %31 ], [ 0, %26 ]
  tail call void @BN_free(ptr noundef %1) #8
  tail call void @BN_free(ptr noundef %.039) #8
  tail call void @BN_free(ptr noundef %.038) #8
  tail call void @BN_free(ptr noundef %.037) #8
  ret i32 %.0
}